; Function Attrs: nounwind uwtable
define internal void @enum_dealloc(ptr noundef %0) #0 {
  tail call void @PyObject_GC_UnTrack(ptr noundef %0) #4
  %2 = getelementptr inbounds nuw i8, ptr %0, i64 24
  %3 = load ptr, ptr %2, align 8, !tbaa !4
  %.not.i = icmp eq ptr %3, null
  br i1 %.not.i, label %Py_XDECREF.exit, label %4

4:                                                ; preds = %1
  %5 = load i32, ptr %3, align 8, !tbaa !13
  %.not.i.i = icmp sgt i32 %5, -1
  br i1 %.not.i.i, label %6, label %Py_XDECREF.exit

6:                                                ; preds = %4
  %7 = add nsw i32 %5, -1
  store i32 %7, ptr %3, align 8, !tbaa !13
  %8 = icmp eq i32 %7, 0
  br i1 %8, label %9, label %Py_XDECREF.exit

9:                                                ; preds = %6
  tail call void @_Py_Dealloc(ptr noundef nonnull %3) #4
  br label %Py_XDECREF.exit

Py_XDECREF.exit:                                  ; preds = %1, %4, %6, %9
  %10 = getelementptr inbounds nuw i8, ptr %0, i64 32
  %11 = load ptr, ptr %10, align 8, !tbaa !14
  %.not.i7 = icmp eq ptr %11, null
  br i1 %.not.i7, label %Py_XDECREF.exit9, label %12

12:                                               ; preds = %Py_XDECREF.exit
  %13 = load i32, ptr %11, align 8, !tbaa !13
  %.not.i.i8 = icmp sgt i32 %13, -1
  br i1 %.not.i.i8, label %14, label %Py_XDECREF.exit9

14:                                               ; preds = %12
  %15 = add nsw i32 %13, -1
  store i32 %15, ptr %11, align 8, !tbaa !13
  %16 = icmp eq i32 %15, 0
  br i1 %16, label %17, label %Py_XDECREF.exit9

17:                                               ; preds = %14
  tail call void @_Py_Dealloc(ptr noundef nonnull %11) #4
  br label %Py_XDECREF.exit9

Py_XDECREF.exit9:                                 ; preds = %Py_XDECREF.exit, %12, %14, %17
  %18 = getelementptr inbounds nuw i8, ptr %0, i64 40
  %19 = load ptr, ptr %18, align 8, !tbaa !15
  %.not.i10 = icmp eq ptr %19, null
  br i1 %.not.i10, label %Py_XDECREF.exit12, label %20

20:                                               ; preds = %Py_XDECREF.exit9
  %21 = load i32, ptr %19, align 8, !tbaa !13
  %.not.i.i11 = icmp sgt i32 %21, -1
  br i1 %.not.i.i11, label %22, label %Py_XDECREF.exit12

22:                                               ; preds = %20
  %23 = add nsw i32 %21, -1
  store i32 %23, ptr %19, align 8, !tbaa !13
  %24 = icmp eq i32 %23, 0
  br i1 %24, label %25, label %Py_XDECREF.exit12

25:                                               ; preds = %22
  tail call void @_Py_Dealloc(ptr noundef nonnull %19) #4
  br label %Py_XDECREF.exit12

Py_XDECREF.exit12:                                ; preds = %Py_XDECREF.exit9, %20, %22, %25
  %26 = getelementptr i8, ptr %0, i64 8
  %.val = load ptr, ptr %26, align 8, !tbaa !16
  %27 = getelementptr inbounds nuw i8, ptr %.val, i64 320
  %28 = load ptr, ptr %27, align 8, !tbaa !17
  tail call void %28(ptr noundef nonnull %0) #4
  ret void
}